; ModuleID = '46/3602.c'
source_filename = "46/3602.c"
target datalayout = "e-m:e-p270:32:32-p271:32:32-p272:64:64-i64:64-f80:128-n8:16:32:64-S128"
target triple = "x86_64-pc-linux-gnu"

@.str = private unnamed_addr constant [5 x i8] c"%d%d\00", align 1
@.str.1 = private unnamed_addr constant [3 x i8] c"%d\00", align 1
@.str.2 = private unnamed_addr constant [4 x i8] c"%d\0A\00", align 1

; Function Attrs: noinline nounwind uwtable
define dso_local i32 @main() #0 {
  %1 = alloca i32, align 4
  %2 = alloca i32, align 4
  %3 = alloca i32, align 4
  %4 = alloca i32, align 4
  %5 = alloca i32, align 4
  %6 = alloca i32, align 4
  %7 = alloca i32, align 4
  %8 = alloca i32, align 4
  %9 = alloca i8*, align 8
  %10 = alloca i64, align 8
  %11 = alloca i64, align 8
  store i32 0, i32* %1, align 4
  store i32 0, i32* %6, align 4
  store i32 0, i32* %8, align 4
  %12 = call i32 (i8*, ...) @__isoc99_scanf(i8* getelementptr inbounds ([5 x i8], [5 x i8]* @.str, i64 0, i64 0), i32* %2, i32* %3)
  %13 = load i32, i32* %2, align 4
  %14 = zext i32 %13 to i64
  %15 = load i32, i32* %3, align 4
  %16 = zext i32 %15 to i64
  %17 = call i8* @llvm.stacksave()
  store i8* %17, i8** %9, align 8
  %18 = mul nuw i64 %14, %16
  %19 = alloca i32, i64 %18, align 16
  store i64 %14, i64* %10, align 8
  store i64 %16, i64* %11, align 8
  store i32 0, i32* %4, align 4
  br label %20

20:                                               ; preds = %42, %0
  %21 = load i32, i32* %4, align 4
  %22 = load i32, i32* %2, align 4
  %23 = icmp slt i32 %21, %22
  br i1 %23, label %24, label %45

24:                                               ; preds = %20
  store i32 0, i32* %5, align 4
  br label %25

25:                                               ; preds = %38, %24
  %26 = load i32, i32* %5, align 4
  %27 = load i32, i32* %3, align 4
  %28 = icmp slt i32 %26, %27
  br i1 %28, label %29, label %41

29:                                               ; preds = %25
  %30 = load i32, i32* %4, align 4
  %31 = sext i32 %30 to i64
  %32 = mul nsw i64 %31, %16
  %33 = getelementptr inbounds i32, i32* %19, i64 %32
  %34 = load i32, i32* %5, align 4
  %35 = sext i32 %34 to i64
  %36 = getelementptr inbounds i32, i32* %33, i64 %35
  %37 = call i32 (i8*, ...) @__isoc99_scanf(i8* getelementptr inbounds ([3 x i8], [3 x i8]* @.str.1, i64 0, i64 0), i32* %36)
  br label %38

38:                                               ; preds = %29
  %39 = load i32, i32* %5, align 4
  %40 = add nsw i32 %39, 1
  store i32 %40, i32* %5, align 4
  br label %25

41:                                               ; preds = %25
  br label %42

42:                                               ; preds = %41
  %43 = load i32, i32* %4, align 4
  %44 = add nsw i32 %43, 1
  store i32 %44, i32* %4, align 4
  br label %20

45:                                               ; preds = %20
  store i32 0, i32* %4, align 4
  store i32 0, i32* %5, align 4
  store i32 0, i32* %7, align 4
  br label %46

46:                                               ; preds = %234, %45
  br label %47

47:                                               ; preds = %82, %46
  %48 = load i32, i32* %5, align 4
  %49 = load i32, i32* %3, align 4
  %50 = load i32, i32* %6, align 4
  %51 = sub nsw i32 %49, %50
  %52 = icmp slt i32 %48, %51
  br i1 %52, label %53, label %85

53:                                               ; preds = %47
  %54 = load i32, i32* %7, align 4
  %55 = load i32, i32* %2, align 4
  %56 = load i32, i32* %3, align 4
  %57 = mul nsw i32 %55, %56
  %58 = sub nsw i32 %57, 1
  %59 = icmp eq i32 %54, %58
  br i1 %59, label %60, label %70

60:                                               ; preds = %53
  %61 = load i32, i32* %4, align 4
  %62 = sext i32 %61 to i64
  %63 = mul nsw i64 %62, %16
  %64 = getelementptr inbounds i32, i32* %19, i64 %63
  %65 = load i32, i32* %5, align 4
  %66 = sext i32 %65 to i64
  %67 = getelementptr inbounds i32, i32* %64, i64 %66
  %68 = load i32, i32* %67, align 4
  %69 = call i32 (i8*, ...) @printf(i8* getelementptr inbounds ([3 x i8], [3 x i8]* @.str.1, i64 0, i64 0), i32 %68)
  store i32 1, i32* %8, align 4
  br label %85

70:                                               ; preds = %53
  %71 = load i32, i32* %4, align 4
  %72 = sext i32 %71 to i64
  %73 = mul nsw i64 %72, %16
  %74 = getelementptr inbounds i32, i32* %19, i64 %73
  %75 = load i32, i32* %5, align 4
  %76 = sext i32 %75 to i64
  %77 = getelementptr inbounds i32, i32* %74, i64 %76
  %78 = load i32, i32* %77, align 4
  %79 = call i32 (i8*, ...) @printf(i8* getelementptr inbounds ([4 x i8], [4 x i8]* @.str.2, i64 0, i64 0), i32 %78)
  %80 = load i32, i32* %7, align 4
  %81 = add nsw i32 %80, 1
  store i32 %81, i32* %7, align 4
  br label %82

82:                                               ; preds = %70
  %83 = load i32, i32* %5, align 4
  %84 = add nsw i32 %83, 1
  store i32 %84, i32* %5, align 4
  br label %47

85:                                               ; preds = %60, %47
  %86 = load i32, i32* %5, align 4
  %87 = add nsw i32 %86, -1
  store i32 %87, i32* %5, align 4
  %88 = load i32, i32* %4, align 4
  %89 = add nsw i32 %88, 1
  store i32 %89, i32* %4, align 4
  %90 = load i32, i32* %8, align 4
  %91 = icmp eq i32 %90, 1
  br i1 %91, label %92, label %93

92:                                               ; preds = %85
  br label %235

93:                                               ; preds = %85
  br label %94

94:                                               ; preds = %129, %93
  %95 = load i32, i32* %4, align 4
  %96 = load i32, i32* %2, align 4
  %97 = load i32, i32* %6, align 4
  %98 = sub nsw i32 %96, %97
  %99 = icmp slt i32 %95, %98
  br i1 %99, label %100, label %132

100:                                              ; preds = %94
  %101 = load i32, i32* %7, align 4
  %102 = load i32, i32* %2, align 4
  %103 = load i32, i32* %3, align 4
  %104 = mul nsw i32 %102, %103
  %105 = sub nsw i32 %104, 1
  %106 = icmp ne i32 %101, %105
  br i1 %106, label %107, label %119

107:                                              ; preds = %100
  %108 = load i32, i32* %4, align 4
  %109 = sext i32 %108 to i64
  %110 = mul nsw i64 %109, %16
  %111 = getelementptr inbounds i32, i32* %19, i64 %110
  %112 = load i32, i32* %5, align 4
  %113 = sext i32 %112 to i64
  %114 = getelementptr inbounds i32, i32* %111, i64 %113
  %115 = load i32, i32* %114, align 4
  %116 = call i32 (i8*, ...) @printf(i8* getelementptr inbounds ([4 x i8], [4 x i8]* @.str.2, i64 0, i64 0), i32 %115)
  %117 = load i32, i32* %7, align 4
  %118 = add nsw i32 %117, 1
  store i32 %118, i32* %7, align 4
  br label %129

119:                                              ; preds = %100
  %120 = load i32, i32* %4, align 4
  %121 = sext i32 %120 to i64
  %122 = mul nsw i64 %121, %16
  %123 = getelementptr inbounds i32, i32* %19, i64 %122
  %124 = load i32, i32* %5, align 4
  %125 = sext i32 %124 to i64
  %126 = getelementptr inbounds i32, i32* %123, i64 %125
  %127 = load i32, i32* %126, align 4
  %128 = call i32 (i8*, ...) @printf(i8* getelementptr inbounds ([3 x i8], [3 x i8]* @.str.1, i64 0, i64 0), i32 %127)
  store i32 1, i32* %8, align 4
  br label %132

129:                                              ; preds = %107
  %130 = load i32, i32* %4, align 4
  %131 = add nsw i32 %130, 1
  store i32 %131, i32* %4, align 4
  br label %94

132:                                              ; preds = %119, %94
  %133 = load i32, i32* %4, align 4
  %134 = add nsw i32 %133, -1
  store i32 %134, i32* %4, align 4
  %135 = load i32, i32* %5, align 4
  %136 = add nsw i32 %135, -1
  store i32 %136, i32* %5, align 4
  %137 = load i32, i32* %8, align 4
  %138 = icmp eq i32 %137, 1
  br i1 %138, label %139, label %140

139:                                              ; preds = %132
  br label %235

140:                                              ; preds = %132
  br label %141

141:                                              ; preds = %175, %140
  %142 = load i32, i32* %5, align 4
  %143 = load i32, i32* %6, align 4
  %144 = sub nsw i32 %142, %143
  %145 = icmp sge i32 %144, 0
  br i1 %145, label %146, label %178

146:                                              ; preds = %141
  %147 = load i32, i32* %7, align 4
  %148 = load i32, i32* %2, align 4
  %149 = load i32, i32* %3, align 4
  %150 = mul nsw i32 %148, %149
  %151 = sub nsw i32 %150, 1
  %152 = icmp ne i32 %147, %151
  br i1 %152, label %153, label %165

153:                                              ; preds = %146
  %154 = load i32, i32* %4, align 4
  %155 = sext i32 %154 to i64
  %156 = mul nsw i64 %155, %16
  %157 = getelementptr inbounds i32, i32* %19, i64 %156
  %158 = load i32, i32* %5, align 4
  %159 = sext i32 %158 to i64
  %160 = getelementptr inbounds i32, i32* %157, i64 %159
  %161 = load i32, i32* %160, align 4
  %162 = call i32 (i8*, ...) @printf(i8* getelementptr inbounds ([4 x i8], [4 x i8]* @.str.2, i64 0, i64 0), i32 %161)
  %163 = load i32, i32* %7, align 4
  %164 = add nsw i32 %163, 1
  store i32 %164, i32* %7, align 4
  br label %175

165:                                              ; preds = %146
  %166 = load i32, i32* %4, align 4
  %167 = sext i32 %166 to i64
  %168 = mul nsw i64 %167, %16
  %169 = getelementptr inbounds i32, i32* %19, i64 %168
  %170 = load i32, i32* %5, align 4
  %171 = sext i32 %170 to i64
  %172 = getelementptr inbounds i32, i32* %169, i64 %171
  %173 = load i32, i32* %172, align 4
  %174 = call i32 (i8*, ...) @printf(i8* getelementptr inbounds ([3 x i8], [3 x i8]* @.str.1, i64 0, i64 0), i32 %173)
  store i32 1, i32* %8, align 4
  br label %178

175:                                              ; preds = %153
  %176 = load i32, i32* %5, align 4
  %177 = add nsw i32 %176, -1
  store i32 %177, i32* %5, align 4
  br label %141

178:                                              ; preds = %165, %141
  %179 = load i32, i32* %5, align 4
  %180 = add nsw i32 %179, 1
  store i32 %180, i32* %5, align 4
  %181 = load i32, i32* %4, align 4
  %182 = add nsw i32 %181, -1
  store i32 %182, i32* %4, align 4
  %183 = load i32, i32* %6, align 4
  %184 = add nsw i32 %183, 1
  store i32 %184, i32* %6, align 4
  %185 = load i32, i32* %8, align 4
  %186 = icmp eq i32 %185, 1
  br i1 %186, label %187, label %188

187:                                              ; preds = %178
  br label %235

188:                                              ; preds = %178
  br label %189

189:                                              ; preds = %223, %188
  %190 = load i32, i32* %4, align 4
  %191 = load i32, i32* %6, align 4
  %192 = sub nsw i32 %190, %191
  %193 = icmp sge i32 %192, 0
  br i1 %193, label %194, label %226

194:                                              ; preds = %189
  %195 = load i32, i32* %7, align 4
  %196 = load i32, i32* %2, align 4
  %197 = load i32, i32* %3, align 4
  %198 = mul nsw i32 %196, %197
  %199 = sub nsw i32 %198, 1
  %200 = icmp ne i32 %195, %199
  br i1 %200, label %201, label %213

201:                                              ; preds = %194
  %202 = load i32, i32* %4, align 4
  %203 = sext i32 %202 to i64
  %204 = mul nsw i64 %203, %16
  %205 = getelementptr inbounds i32, i32* %19, i64 %204
  %206 = load i32, i32* %5, align 4
  %207 = sext i32 %206 to i64
  %208 = getelementptr inbounds i32, i32* %205, i64 %207
  %209 = load i32, i32* %208, align 4
  %210 = call i32 (i8*, ...) @printf(i8* getelementptr inbounds ([4 x i8], [4 x i8]* @.str.2, i64 0, i64 0), i32 %209)
  %211 = load i32, i32* %7, align 4
  %212 = add nsw i32 %211, 1
  store i32 %212, i32* %7, align 4
  br label %223

213:                                              ; preds = %194
  %214 = load i32, i32* %4, align 4
  %215 = sext i32 %214 to i64
  %216 = mul nsw i64 %215, %16
  %217 = getelementptr inbounds i32, i32* %19, i64 %216
  %218 = load i32, i32* %5, align 4
  %219 = sext i32 %218 to i64
  %220 = getelementptr inbounds i32, i32* %217, i64 %219
  %221 = load i32, i32* %220, align 4
  %222 = call i32 (i8*, ...) @printf(i8* getelementptr inbounds ([3 x i8], [3 x i8]* @.str.1, i64 0, i64 0), i32 %221)
  store i32 1, i32* %8, align 4
  br label %226

223:                                              ; preds = %201
  %224 = load i32, i32* %4, align 4
  %225 = add nsw i32 %224, -1
  store i32 %225, i32* %4, align 4
  br label %189

226:                                              ; preds = %213, %189
  %227 = load i32, i32* %4, align 4
  %228 = add nsw i32 %227, 1
  store i32 %228, i32* %4, align 4
  %229 = load i32, i32* %5, align 4
  %230 = add nsw i32 %229, 1
  store i32 %230, i32* %5, align 4
  %231 = load i32, i32* %8, align 4
  %232 = icmp eq i32 %231, 1
  br i1 %232, label %233, label %234

233:                                              ; preds = %226
  br label %235

234:                                              ; preds = %226
  br label %46

235:                                              ; preds = %233, %187, %139, %92
  store i32 0, i32* %1, align 4
  %236 = load i8*, i8** %9, align 8
  call void @llvm.stackrestore(i8* %236)
  %237 = load i32, i32* %1, align 4
  ret i32 %237
}

declare dso_local i32 @__isoc99_scanf(i8*, ...) #1

; Function Attrs: nounwind
declare i8* @llvm.stacksave() #2

declare dso_local i32 @printf(i8*, ...) #1

; Function Attrs: nounwind
declare void @llvm.stackrestore(i8*) #2


!llvm.module.flags = !{!0}
!llvm.ident = !{!1}

!0 = !{i32 1, !"wchar_size", i32 4}
!1 = !{!"clang version 10.0.0-4ubuntu1 "}
